; Function Attrs: mustprogress nofree norecurse nounwind willreturn uwtable
define internal void @"_ZNSt17_Function_handlerIFSt10shared_ptrIN8facebook5velox4exec14VectorFunctionEERKNSt7__cxx1112basic_stringIcSt11char_traitsIcESaIcEEERKSt6vectorINS3_17VectorFunctionArgESaISF_EERKNS2_4core11QueryConfigEEZNS3_22registerVectorFunctionESD_SE_IS0_INS3_17FunctionSignatureEESaISQ_EESt10unique_ptrIS4_St14default_deleteIS4_EENS3_22VectorFunctionMetadataEbE3$_0E9_M_invokeERKSt9_Any_dataSD_SJ_SN_"(ptr noalias nocapture writeonly sret(%"class.std::shared_ptr.80") align 8 %agg.result, ptr nocapture noundef nonnull readonly align 8 dereferenceable(16) %__functor, ptr nocapture nonnull readnone align 8 %__args, ptr nocapture nonnull readnone align 8 %__args1, ptr nocapture nonnull readnone align 8 %__args3) #14 align 2 personality ptr @__gxx_personality_v0 {
entry:
  %__functor.val = load ptr, ptr %__functor, align 8
  tail call void @llvm.experimental.noalias.scope.decl(metadata !69)
  tail call void @llvm.experimental.noalias.scope.decl(metadata !72)
  tail call void @llvm.experimental.noalias.scope.decl(metadata !75)
  %0 = load <2 x ptr>, ptr %__functor.val, align 8
  store <2 x ptr> %0, ptr %agg.result, align 8, !alias.scope !78
  %1 = extractelement <2 x ptr> %0, i64 1
  %cmp.not.i.i.i.i.i.i = icmp eq ptr %1, null
  br i1 %cmp.not.i.i.i.i.i.i, label %"_ZSt10__invoke_rISt10shared_ptrIN8facebook5velox4exec14VectorFunctionEERZNS3_22registerVectorFunctionERKNSt7__cxx1112basic_stringIcSt11char_traitsIcESaIcEEESt6vectorIS0_INS3_17FunctionSignatureEESaISG_EESt10unique_ptrIS4_St14default_deleteIS4_EENS3_22VectorFunctionMetadataEbE3$_0JSD_RKSE_INS3_17VectorFunctionArgESaISQ_EERKNS2_4core11QueryConfigEEENSt9enable_ifIX16is_invocable_r_vIT_T0_DpT1_EES10_E4typeEOS11_DpOS12_.exit", label %if.then.i.i.i.i.i.i

if.then.i.i.i.i.i.i:                              ; preds = %entry
  %_M_use_count.i.i.i.i.i.i.i = getelementptr inbounds i8, ptr %1, i64 8
  %2 = load i8, ptr @__libc_single_threaded, align 1, !noalias !78
  %tobool.i.i.not.i.i.i.i.i.i.i = icmp eq i8 %2, 0
  br i1 %tobool.i.i.not.i.i.i.i.i.i.i, label %if.else.i.i.i.i.i.i.i.i, label %if.then.i.i.i.i.i.i.i.i

if.then.i.i.i.i.i.i.i.i:                          ; preds = %if.then.i.i.i.i.i.i
  %3 = load i32, ptr %_M_use_count.i.i.i.i.i.i.i, align 4, !noalias !78
  %add.i.i.i.i.i.i.i.i = add nsw i32 %3, 1
  store i32 %add.i.i.i.i.i.i.i.i, ptr %_M_use_count.i.i.i.i.i.i.i, align 4, !noalias !78
  br label %"_ZSt10__invoke_rISt10shared_ptrIN8facebook5velox4exec14VectorFunctionEERZNS3_22registerVectorFunctionERKNSt7__cxx1112basic_stringIcSt11char_traitsIcESaIcEEESt6vectorIS0_INS3_17FunctionSignatureEESaISG_EESt10unique_ptrIS4_St14default_deleteIS4_EENS3_22VectorFunctionMetadataEbE3$_0JSD_RKSE_INS3_17VectorFunctionArgESaISQ_EERKNS2_4core11QueryConfigEEENSt9enable_ifIX16is_invocable_r_vIT_T0_DpT1_EES10_E4typeEOS11_DpOS12_.exit"

if.else.i.i.i.i.i.i.i.i:                          ; preds = %if.then.i.i.i.i.i.i
  %4 = atomicrmw volatile add ptr %_M_use_count.i.i.i.i.i.i.i, i32 1 acq_rel, align 4, !noalias !78
  br label %"_ZSt10__invoke_rISt10shared_ptrIN8facebook5velox4exec14VectorFunctionEERZNS3_22registerVectorFunctionERKNSt7__cxx1112basic_stringIcSt11char_traitsIcESaIcEEESt6vectorIS0_INS3_17FunctionSignatureEESaISG_EESt10unique_ptrIS4_St14default_deleteIS4_EENS3_22VectorFunctionMetadataEbE3$_0JSD_RKSE_INS3_17VectorFunctionArgESaISQ_EERKNS2_4core11QueryConfigEEENSt9enable_ifIX16is_invocable_r_vIT_T0_DpT1_EES10_E4typeEOS11_DpOS12_.exit"

"_ZSt10__invoke_rISt10shared_ptrIN8facebook5velox4exec14VectorFunctionEERZNS3_22registerVectorFunctionERKNSt7__cxx1112basic_stringIcSt11char_traitsIcESaIcEEESt6vectorIS0_INS3_17FunctionSignatureEESaISG_EESt10unique_ptrIS4_St14default_deleteIS4_EENS3_22VectorFunctionMetadataEbE3$_0JSD_RKSE_INS3_17VectorFunctionArgESaISQ_EERKNS2_4core11QueryConfigEEENSt9enable_ifIX16is_invocable_r_vIT_T0_DpT1_EES10_E4typeEOS11_DpOS12_.exit": ; preds = %entry, %if.then.i.i.i.i.i.i.i.i, %if.else.i.i.i.i.i.i.i.i
  ret void
}